; Function Attrs: mustprogress uwtable
define void @_ZN6marisa8grimoire4trie9LoudsTrie13reserve_cacheERKNS1_6ConfigEmm(ptr noundef nonnull align 8 dereferenceable(1136) %0, ptr nocapture noundef nonnull readonly align 8 dereferenceable(20) %1, i64 noundef %2, i64 noundef %3) local_unnamed_addr #3 align 2 {
  %5 = icmp eq i64 %2, 1
  %6 = select i1 %5, i64 256, i64 1
  %7 = getelementptr inbounds i8, ptr %1, i64 8
  %8 = load i32, ptr %7, align 8
  %9 = zext i32 %8 to i64
  %10 = udiv i64 %3, %9
  br label %11

11:                                               ; preds = %11, %4
  %.0 = phi i64 [ %6, %4 ], [ %13, %11 ]
  %12 = icmp ult i64 %.0, %10
  %13 = shl i64 %.0, 1
  br i1 %12, label %11, label %14, !llvm.loop !34

14:                                               ; preds = %11
  %15 = getelementptr inbounds i8, ptr %0, i64 1008
  tail call void @_ZN6marisa8grimoire6vector6VectorINS0_4trie5CacheEE6resizeEm(ptr noundef nonnull align 8 dereferenceable(41) %15, i64 noundef %.0)
  %16 = add i64 %.0, -1
  %17 = getelementptr inbounds i8, ptr %0, i64 1056
  store i64 %16, ptr %17, align 8
  ret void
}